; Function Attrs: nounwind uwtable
define internal ptr @get_tp_token(ptr readnone captures(none) %0, ptr noundef %1) #0 {
  %3 = tail call ptr @PyType_GetSlot(ptr noundef %1, i32 noundef 83) #8
  %4 = tail call ptr @PyErr_Occurred() #8
  %.not = icmp eq ptr %4, null
  br i1 %.not, label %5, label %7

5:                                                ; preds = %2
  %6 = tail call ptr @PyLong_FromVoidPtr(ptr noundef %3) #8
  br label %7

7:                                                ; preds = %2, %5
  %.0 = phi ptr [ %6, %5 ], [ null, %2 ]
  ret ptr %.0
}